   1              		.cpu arm7tdmi
   2              		.fpu softvfp
   3              		.eabi_attribute 20, 1
   4              		.eabi_attribute 21, 1
   5              		.eabi_attribute 23, 3
   6              		.eabi_attribute 24, 1
   7              		.eabi_attribute 25, 1
   8              		.eabi_attribute 26, 1
   9              		.eabi_attribute 30, 6
  10              		.eabi_attribute 18, 4
  11              		.file	"timer3.c"
  21              	.Ltext0:
  22              		.file 1 "../timer3.c"
 2152              	estado_actual:
 2153 0000 00       		.space	1
 2154 0001 000000   		.align	2
 2155              	contador_ms:
 2156 0004 00000000 		.space	4
 2157              		.align	2
 2158              	monitor_ms:
 2159 0008 00000000 		.space	4
 2160              	boton_en_proceso:
 2161 000c 00       		.space	1
 2162 000d 000000   		.align	2
 2163              	mascara_boton:
 2164 0010 00000000 		.space	4
 2165              		.align	2
 2166              	callback_validacion:
 2167 0014 00000000 		.space	4
 2168              		.text
 2169              		.align	2
 2171              	boton_sigue_pulsado:
 2172              	.LFB0:
   1:../timer3.c   **** /*********************************************************************************************
   2:../timer3.c   **** * Fichero:              timer3.c
   3:../timer3.c   **** * Autor:
   4:../timer3.c   **** * Descrip:              Gestión del timer3 para la eliminación de rebotes por máquina de estados
   5:../timer3.c   **** * Version:              1.0
   6:../timer3.c   **** *********************************************************************************************/
   7:../timer3.c   **** 
   8:../timer3.c   **** /*--- Ficheros de cabecera ---*/
   9:../timer3.c   **** #include "timer3.h"
  10:../timer3.c   **** #include "eventos.h"
  11:../timer3.c   **** #include "44b.h"
  12:../timer3.c   **** #include "44blib.h"
  13:../timer3.c   **** 
  14:../timer3.c   **** /*--- Constantes ---*/
  15:../timer3.c   **** #define TIMER3_1MS_COUNT           32000U        /* Cuenta necesaria para 1 ms con preescalado 0 y 
  16:../timer3.c   **** #define TIMER3_TICK_MS             1U
  17:../timer3.c   **** #define TIMER3_TRP_MS              30U           /* Retardo tras la pulsación */
  18:../timer3.c   **** #define TIMER3_TRD_MS              30U           /* Retardo tras soltar el botón */
  19:../timer3.c   **** #define TIMER3_MONITOR_MS          100U          /* Periodo de monitorización */
  20:../timer3.c   **** 
  21:../timer3.c   **** #define BOTON_MASK_EINT6           (1U << 6)    /* EINT6 usa el pin PG6 */
  22:../timer3.c   **** #define BOTON_MASK_EINT7           (1U << 7)    /* EINT7 usa el pin PG7 */
  23:../timer3.c   **** 
  24:../timer3.c   **** /*--- Variables internas ---*/
  25:../timer3.c   **** static volatile EstadoPulsador estado_actual = ESPERANDO_PULSACION;
  26:../timer3.c   **** static volatile uint32_t contador_ms = 0;
  27:../timer3.c   **** static volatile uint32_t monitor_ms = 0;
  28:../timer3.c   **** static volatile uint8_t boton_en_proceso = 0;
  29:../timer3.c   **** static volatile unsigned int mascara_boton = 0;
  30:../timer3.c   **** static timer3_callback_t callback_validacion = 0;
  31:../timer3.c   **** 
  32:../timer3.c   **** /* Declaración de la ISR del timer3 */
  33:../timer3.c   **** void timer3_ISR(void) __attribute__((interrupt("IRQ")));
  34:../timer3.c   **** 
  35:../timer3.c   **** /*--- Funciones auxiliares internas ---*/
  36:../timer3.c   **** static inline int boton_sigue_pulsado(void)
  37:../timer3.c   **** {
 2173              		.loc 1 37 0
 2174              		.cfi_startproc
 2175              		@ Function supports interworking.
 2176              		@ args = 0, pretend = 0, frame = 8
 2177              		@ frame_needed = 1, uses_anonymous_args = 0
 2178 0000 0DC0A0E1 		mov	ip, sp
 2179              	.LCFI0:
 2180              		.cfi_def_cfa_register 12
 2181 0004 00D82DE9 		stmfd	sp!, {fp, ip, lr, pc}
 2182 0008 04B04CE2 		sub	fp, ip, #4
 2183              		.cfi_offset 14, -8
 2184              		.cfi_offset 13, -12
 2185              		.cfi_offset 11, -16
 2186              	.LCFI1:
 2187              		.cfi_def_cfa 11, 4
 2188 000c 08D04DE2 		sub	sp, sp, #8
  38:../timer3.c   ****         unsigned int estado = (~rPDATG) & mascara_boton;
 2189              		.loc 1 38 0
 2190 0010 34309FE5 		ldr	r3, .L2
 2191 0014 003093E5 		ldr	r3, [r3, #0]
 2192 0018 0320E0E1 		mvn	r2, r3
 2193 001c 2C309FE5 		ldr	r3, .L2+4
 2194 0020 003093E5 		ldr	r3, [r3, #0]
 2195 0024 033002E0 		and	r3, r2, r3
 2196 0028 10300BE5 		str	r3, [fp, #-16]
  39:../timer3.c   ****         return (estado != 0);
 2197              		.loc 1 39 0
 2198 002c 10301BE5 		ldr	r3, [fp, #-16]
 2199 0030 000053E3 		cmp	r3, #0
 2200 0034 0030A003 		moveq	r3, #0
 2201 0038 0130A013 		movne	r3, #1
  40:../timer3.c   **** }
 2202              		.loc 1 40 0
 2203 003c 0300A0E1 		mov	r0, r3
 2204 0040 0CD04BE2 		sub	sp, fp, #12
 2205 0044 00689DE8 		ldmfd	sp, {fp, sp, lr}
 2206 0048 1EFF2FE1 		bx	lr
 2207              	.L3:
 2208              		.align	2
 2209              	.L2:
 2210 004c 4400D201 		.word	30539844
 2211 0050 10000000 		.word	mascara_boton
 2212              		.cfi_endproc
 2213              	.LFE0:
 2215              		.align	2
 2217              	timer3_detener:
 2218              	.LFB1:
  41:../timer3.c   **** 
  42:../timer3.c   **** static void timer3_detener(void)
  43:../timer3.c   **** {
 2219              		.loc 1 43 0
 2220              		.cfi_startproc
 2221              		@ Function supports interworking.
 2222              		@ args = 0, pretend = 0, frame = 0
 2223              		@ frame_needed = 1, uses_anonymous_args = 0
 2224 0054 0DC0A0E1 		mov	ip, sp
 2225              	.LCFI2:
 2226              		.cfi_def_cfa_register 12
 2227 0058 00D82DE9 		stmfd	sp!, {fp, ip, lr, pc}
 2228 005c 04B04CE2 		sub	fp, ip, #4
 2229              		.cfi_offset 14, -8
 2230              		.cfi_offset 13, -12
 2231              		.cfi_offset 11, -16
 2232              	.LCFI3:
 2233              		.cfi_def_cfa 11, 4
  44:../timer3.c   ****         /* Parar el timer y enmascarar la interrupción */
  45:../timer3.c   ****         rTCON &= ~(1 << 16);             /* Bit 16 controla start/stop del timer3 */
 2234              		.loc 1 45 0
 2235 0060 2C309FE5 		ldr	r3, .L5
 2236 0064 28209FE5 		ldr	r2, .L5
 2237 0068 002092E5 		ldr	r2, [r2, #0]
 2238 006c 0128C2E3 		bic	r2, r2, #65536
 2239 0070 002083E5 		str	r2, [r3, #0]
  46:../timer3.c   ****         rINTMSK |= BIT_TIMER3;
 2240              		.loc 1 46 0
 2241 0074 1C309FE5 		ldr	r3, .L5+4
 2242 0078 18209FE5 		ldr	r2, .L5+4
 2243 007c 002092E5 		ldr	r2, [r2, #0]
 2244 0080 012B82E3 		orr	r2, r2, #1024
 2245 0084 002083E5 		str	r2, [r3, #0]
  47:../timer3.c   **** }
 2246              		.loc 1 47 0
 2247 0088 0CD04BE2 		sub	sp, fp, #12
 2248 008c 00689DE8 		ldmfd	sp, {fp, sp, lr}
 2249 0090 1EFF2FE1 		bx	lr
 2250              	.L6:
 2251              		.align	2
 2252              	.L5:
 2253 0094 0800D501 		.word	30736392
 2254 0098 0C00E001 		.word	31457292
 2255              		.cfi_endproc
 2256              	.LFE1:
 2258              		.align	2
 2260              	timer3_preparar_tick:
 2261              	.LFB2:
  48:../timer3.c   **** 
  49:../timer3.c   **** static void timer3_preparar_tick(void)
  50:../timer3.c   **** {
 2262              		.loc 1 50 0
 2263              		.cfi_startproc
 2264              		@ Function supports interworking.
 2265              		@ args = 0, pretend = 0, frame = 0
 2266              		@ frame_needed = 1, uses_anonymous_args = 0
 2267 009c 0DC0A0E1 		mov	ip, sp
 2268              	.LCFI4:
 2269              		.cfi_def_cfa_register 12
 2270 00a0 00D82DE9 		stmfd	sp!, {fp, ip, lr, pc}
 2271 00a4 04B04CE2 		sub	fp, ip, #4
 2272              		.cfi_offset 14, -8
 2273              		.cfi_offset 13, -12
 2274              		.cfi_offset 11, -16
 2275              	.LCFI5:
 2276              		.cfi_def_cfa 11, 4
  51:../timer3.c   ****         /* Configurar el valor de cuenta para 1 ms */
  52:../timer3.c   ****         rTCNTB3 = TIMER3_1MS_COUNT;
 2277              		.loc 1 52 0
 2278 00a8 4C309FE5 		ldr	r3, .L8
 2279 00ac 7D2CA0E3 		mov	r2, #32000
 2280 00b0 002083E5 		str	r2, [r3, #0]
  53:../timer3.c   ****         rTCMPB3 = 0;
 2281              		.loc 1 53 0
 2282 00b4 44309FE5 		ldr	r3, .L8+4
 2283 00b8 0020A0E3 		mov	r2, #0
 2284 00bc 002083E5 		str	r2, [r3, #0]
  54:../timer3.c   **** 
  55:../timer3.c   ****         /* Cargar los nuevos valores (manual update) */
  56:../timer3.c   ****         rTCON = (rTCON & ~(0xF << 16)) | (1 << 17);
 2285              		.loc 1 56 0
 2286 00c0 3C309FE5 		ldr	r3, .L8+8
 2287 00c4 38209FE5 		ldr	r2, .L8+8
 2288 00c8 002092E5 		ldr	r2, [r2, #0]
 2289 00cc 0F28C2E3 		bic	r2, r2, #983040
 2290 00d0 022882E3 		orr	r2, r2, #131072
 2291 00d4 002083E5 		str	r2, [r3, #0]
  57:../timer3.c   ****         /* Activar auto-reload y arrancar el timer */
  58:../timer3.c   ****         rTCON = (rTCON & ~(0xF << 16)) | (1 << 19) | (1 << 16);
 2292              		.loc 1 58 0
 2293 00d8 24309FE5 		ldr	r3, .L8+8
 2294 00dc 20209FE5 		ldr	r2, .L8+8
 2295 00e0 002092E5 		ldr	r2, [r2, #0]
 2296 00e4 0F28C2E3 		bic	r2, r2, #983040
 2297 00e8 092882E3 		orr	r2, r2, #589824
 2298 00ec 002083E5 		str	r2, [r3, #0]
  59:../timer3.c   **** }
 2299              		.loc 1 59 0
 2300 00f0 0CD04BE2 		sub	sp, fp, #12
 2301 00f4 00689DE8 		ldmfd	sp, {fp, sp, lr}
 2302 00f8 1EFF2FE1 		bx	lr
 2303              	.L9:
 2304              		.align	2
 2305              	.L8:
 2306 00fc 3000D501 		.word	30736432
 2307 0100 3400D501 		.word	30736436
 2308 0104 0800D501 		.word	30736392
 2309              		.cfi_endproc
 2310              	.LFE2:
 2312              		.align	2
 2314              	finalizar_antirrebote:
 2315              	.LFB3:
  60:../timer3.c   **** 
  61:../timer3.c   **** static void finalizar_antirrebote(void)
  62:../timer3.c   **** {
 2316              		.loc 1 62 0
 2317              		.cfi_startproc
 2318              		@ Function supports interworking.
 2319              		@ args = 0, pretend = 0, frame = 0
 2320              		@ frame_needed = 1, uses_anonymous_args = 0
 2321 0108 0DC0A0E1 		mov	ip, sp
 2322              	.LCFI6:
 2323              		.cfi_def_cfa_register 12
 2324 010c 00D82DE9 		stmfd	sp!, {fp, ip, lr, pc}
 2325 0110 04B04CE2 		sub	fp, ip, #4
 2326              		.cfi_offset 14, -8
 2327              		.cfi_offset 13, -12
 2328              		.cfi_offset 11, -16
 2329              	.LCFI7:
 2330              		.cfi_def_cfa 11, 4
  63:../timer3.c   ****         /* Detener el temporizador */
  64:../timer3.c   ****         timer3_detener();
 2331              		.loc 1 64 0
 2332 0114 CEFFFFEB 		bl	timer3_detener
  65:../timer3.c   **** 
  66:../timer3.c   ****         /* Rehabilitar las interrupciones de los botones */
  67:../timer3.c   ****         rEXTINTPND = 0xf;
 2333              		.loc 1 67 0
 2334 0118 A4309FE5 		ldr	r3, .L12
 2335 011c 0F20A0E3 		mov	r2, #15
 2336 0120 002083E5 		str	r2, [r3, #0]
  68:../timer3.c   ****         rINTMSK &= ~(BIT_EINT4567);
 2337              		.loc 1 68 0
 2338 0124 9C309FE5 		ldr	r3, .L12+4
 2339 0128 98209FE5 		ldr	r2, .L12+4
 2340 012c 002092E5 		ldr	r2, [r2, #0]
 2341 0130 0226C2E3 		bic	r2, r2, #2097152
 2342 0134 002083E5 		str	r2, [r3, #0]
  69:../timer3.c   ****         rI_ISPC |= BIT_EINT4567;
 2343              		.loc 1 69 0
 2344 0138 8C309FE5 		ldr	r3, .L12+8
 2345 013c 88209FE5 		ldr	r2, .L12+8
 2346 0140 002092E5 		ldr	r2, [r2, #0]
 2347 0144 022682E3 		orr	r2, r2, #2097152
 2348 0148 002083E5 		str	r2, [r3, #0]
  70:../timer3.c   **** 
  71:../timer3.c   ****         /* Notificar la pulsación validada */
  72:../timer3.c   ****         if (callback_validacion)
 2349              		.loc 1 72 0
 2350 014c 7C309FE5 		ldr	r3, .L12+12
 2351 0150 003093E5 		ldr	r3, [r3, #0]
 2352 0154 000053E3 		cmp	r3, #0
 2353 0158 0700000A 		beq	.L11
  73:../timer3.c   ****         {
  74:../timer3.c   ****                 callback_validacion(boton_en_proceso);
 2354              		.loc 1 74 0
 2355 015c 6C309FE5 		ldr	r3, .L12+12
 2356 0160 003093E5 		ldr	r3, [r3, #0]
 2357 0164 68209FE5 		ldr	r2, .L12+16
 2358 0168 0020D2E5 		ldrb	r2, [r2, #0]
 2359 016c FF2002E2 		and	r2, r2, #255
 2360 0170 0200A0E1 		mov	r0, r2
 2361 0174 0FE0A0E1 		mov	lr, pc
 2362 0178 13FF2FE1 		bx	r3
 2363              	.L11:
  75:../timer3.c   ****         }
  76:../timer3.c   **** 
  77:../timer3.c   ****         /* Resetear el estado interno */
  78:../timer3.c   ****         estado_actual = ESPERANDO_PULSACION;
 2364              		.loc 1 78 0
 2365 017c 54309FE5 		ldr	r3, .L12+20
 2366 0180 0020A0E3 		mov	r2, #0
 2367 0184 0020C3E5 		strb	r2, [r3, #0]
  79:../timer3.c   ****         contador_ms = 0;
 2368              		.loc 1 79 0
 2369 0188 4C309FE5 		ldr	r3, .L12+24
 2370 018c 0020A0E3 		mov	r2, #0
 2371 0190 002083E5 		str	r2, [r3, #0]
  80:../timer3.c   ****         monitor_ms = 0;
 2372              		.loc 1 80 0
 2373 0194 44309FE5 		ldr	r3, .L12+28
 2374 0198 0020A0E3 		mov	r2, #0
 2375 019c 002083E5 		str	r2, [r3, #0]
  81:../timer3.c   ****         boton_en_proceso = 0;
 2376              		.loc 1 81 0
 2377 01a0 2C309FE5 		ldr	r3, .L12+16
 2378 01a4 0020A0E3 		mov	r2, #0
 2379 01a8 0020C3E5 		strb	r2, [r3, #0]
  82:../timer3.c   ****         mascara_boton = 0;
 2380              		.loc 1 82 0
 2381 01ac 30309FE5 		ldr	r3, .L12+32
 2382 01b0 0020A0E3 		mov	r2, #0
 2383 01b4 002083E5 		str	r2, [r3, #0]
  83:../timer3.c   **** }
 2384              		.loc 1 83 0
 2385 01b8 0CD04BE2 		sub	sp, fp, #12
 2386 01bc 00689DE8 		ldmfd	sp, {fp, sp, lr}
 2387 01c0 1EFF2FE1 		bx	lr
 2388              	.L13:
 2389              		.align	2
 2390              	.L12:
 2391 01c4 5400D201 		.word	30539860
 2392 01c8 0C00E001 		.word	31457292
 2393 01cc 2400E001 		.word	31457316
 2394 01d0 14000000 		.word	callback_validacion
 2395 01d4 0C000000 		.word	boton_en_proceso
 2396 01d8 00000000 		.word	estado_actual
 2397 01dc 04000000 		.word	contador_ms
 2398 01e0 08000000 		.word	monitor_ms
 2399 01e4 10000000 		.word	mascara_boton
 2400              		.cfi_endproc
 2401              	.LFE3:
 2403              		.align	2
 2404              		.global	timer3_init
 2406              	timer3_init:
 2407              	.LFB4:
  84:../timer3.c   **** 
  85:../timer3.c   **** /*--- Código de las funciones públicas ---*/
  86:../timer3.c   **** void timer3_init(timer3_callback_t callback)
  87:../timer3.c   **** {
 2408              		.loc 1 87 0
 2409              		.cfi_startproc
 2410              		@ Function supports interworking.
 2411              		@ args = 0, pretend = 0, frame = 8
 2412              		@ frame_needed = 1, uses_anonymous_args = 0
 2413 01e8 0DC0A0E1 		mov	ip, sp
 2414              	.LCFI8:
 2415              		.cfi_def_cfa_register 12
 2416 01ec 00D82DE9 		stmfd	sp!, {fp, ip, lr, pc}
 2417 01f0 04B04CE2 		sub	fp, ip, #4
 2418              		.cfi_offset 14, -8
 2419              		.cfi_offset 13, -12
 2420              		.cfi_offset 11, -16
 2421              	.LCFI9:
 2422              		.cfi_def_cfa 11, 4
 2423 01f4 08D04DE2 		sub	sp, sp, #8
 2424 01f8 10000BE5 		str	r0, [fp, #-16]
  88:../timer3.c   ****         callback_validacion = callback;
 2425              		.loc 1 88 0
 2426 01fc D8309FE5 		ldr	r3, .L15
 2427 0200 10201BE5 		ldr	r2, [fp, #-16]
 2428 0204 002083E5 		str	r2, [r3, #0]
  89:../timer3.c   ****         estado_actual = ESPERANDO_PULSACION;
 2429              		.loc 1 89 0
 2430 0208 D0309FE5 		ldr	r3, .L15+4
 2431 020c 0020A0E3 		mov	r2, #0
 2432 0210 0020C3E5 		strb	r2, [r3, #0]
  90:../timer3.c   ****         contador_ms = 0;
 2433              		.loc 1 90 0
 2434 0214 C8309FE5 		ldr	r3, .L15+8
 2435 0218 0020A0E3 		mov	r2, #0
 2436 021c 002083E5 		str	r2, [r3, #0]
  91:../timer3.c   ****         monitor_ms = 0;
 2437              		.loc 1 91 0
 2438 0220 C0309FE5 		ldr	r3, .L15+12
 2439 0224 0020A0E3 		mov	r2, #0
 2440 0228 002083E5 		str	r2, [r3, #0]
  92:../timer3.c   ****         boton_en_proceso = 0;
 2441              		.loc 1 92 0
 2442 022c B8309FE5 		ldr	r3, .L15+16
 2443 0230 0020A0E3 		mov	r2, #0
 2444 0234 0020C3E5 		strb	r2, [r3, #0]
  93:../timer3.c   ****         mascara_boton = 0;
 2445              		.loc 1 93 0
 2446 0238 B0309FE5 		ldr	r3, .L15+20
 2447 023c 0020A0E3 		mov	r2, #0
 2448 0240 002083E5 		str	r2, [r3, #0]
  94:../timer3.c   **** 
  95:../timer3.c   ****         /* Enmascarar la interrupción del timer3 inicialmente */
  96:../timer3.c   ****         rINTMSK |= BIT_TIMER3;
 2449              		.loc 1 96 0
 2450 0244 A8309FE5 		ldr	r3, .L15+24
 2451 0248 A4209FE5 		ldr	r2, .L15+24
 2452 024c 002092E5 		ldr	r2, [r2, #0]
 2453 0250 012B82E3 		orr	r2, r2, #1024
 2454 0254 002083E5 		str	r2, [r3, #0]
  97:../timer3.c   **** 
  98:../timer3.c   ****         /* Configurar el vector de interrupción */
  99:../timer3.c   ****         pISR_TIMER3 = (unsigned) timer3_ISR;
 2455              		.loc 1 99 0
 2456 0258 98309FE5 		ldr	r3, .L15+28
 2457 025c 98209FE5 		ldr	r2, .L15+32
 2458 0260 002083E5 		str	r2, [r3, #0]
 100:../timer3.c   **** 
 101:../timer3.c   ****         /* Configurar divisor (1/2) compartido con el timer2 */
 102:../timer3.c   ****         rTCFG1 = (rTCFG1 & ~(0xF << 12)) | (0x0 << 12);
 2459              		.loc 1 102 0
 2460 0264 94309FE5 		ldr	r3, .L15+36
 2461 0268 90209FE5 		ldr	r2, .L15+36
 2462 026c 002092E5 		ldr	r2, [r2, #0]
 2463 0270 0F2AC2E3 		bic	r2, r2, #61440
 2464 0274 002083E5 		str	r2, [r3, #0]
 103:../timer3.c   **** 
 104:../timer3.c   ****         /* Cargar el valor inicial y dejar el timer parado */
 105:../timer3.c   ****         rTCNTB3 = TIMER3_1MS_COUNT;
 2465              		.loc 1 105 0
 2466 0278 84309FE5 		ldr	r3, .L15+40
 2467 027c 7D2CA0E3 		mov	r2, #32000
 2468 0280 002083E5 		str	r2, [r3, #0]
 106:../timer3.c   ****         rTCMPB3 = 0;
 2469              		.loc 1 106 0
 2470 0284 7C309FE5 		ldr	r3, .L15+44
 2471 0288 0020A0E3 		mov	r2, #0
 2472 028c 002083E5 		str	r2, [r3, #0]
 107:../timer3.c   ****         rTCON = (rTCON & ~(0xF << 16)) | (1 << 17);
 2473              		.loc 1 107 0
 2474 0290 74309FE5 		ldr	r3, .L15+48
 2475 0294 70209FE5 		ldr	r2, .L15+48
 2476 0298 002092E5 		ldr	r2, [r2, #0]
 2477 029c 0F28C2E3 		bic	r2, r2, #983040
 2478 02a0 022882E3 		orr	r2, r2, #131072
 2479 02a4 002083E5 		str	r2, [r3, #0]
 108:../timer3.c   ****         rTCON &= ~(0xF << 16);
 2480              		.loc 1 108 0
 2481 02a8 5C309FE5 		ldr	r3, .L15+48
 2482 02ac 58209FE5 		ldr	r2, .L15+48
 2483 02b0 002092E5 		ldr	r2, [r2, #0]
 2484 02b4 0F28C2E3 		bic	r2, r2, #983040
 2485 02b8 002083E5 		str	r2, [r3, #0]
 109:../timer3.c   **** 
 110:../timer3.c   ****         /* Limpiar posibles peticiones pendientes */
 111:../timer3.c   ****         rI_ISPC |= BIT_TIMER3;
 2486              		.loc 1 111 0
 2487 02bc 4C309FE5 		ldr	r3, .L15+52
 2488 02c0 48209FE5 		ldr	r2, .L15+52
 2489 02c4 002092E5 		ldr	r2, [r2, #0]
 2490 02c8 012B82E3 		orr	r2, r2, #1024
 2491 02cc 002083E5 		str	r2, [r3, #0]
 112:../timer3.c   **** }
 2492              		.loc 1 112 0
 2493 02d0 0CD04BE2 		sub	sp, fp, #12
 2494 02d4 00689DE8 		ldmfd	sp, {fp, sp, lr}
 2495 02d8 1EFF2FE1 		bx	lr
 2496              	.L16:
 2497              		.align	2
 2498              	.L15:
 2499 02dc 14000000 		.word	callback_validacion
 2500 02e0 00000000 		.word	estado_actual
 2501 02e4 04000000 		.word	contador_ms
 2502 02e8 08000000 		.word	monitor_ms
 2503 02ec 0C000000 		.word	boton_en_proceso
 2504 02f0 10000000 		.word	mascara_boton
 2505 02f4 0C00E001 		.word	31457292
 2506 02f8 48FF7F0C 		.word	209715016
 2507 02fc 00000000 		.word	timer3_ISR
 2508 0300 0400D501 		.word	30736388
 2509 0304 3000D501 		.word	30736432
 2510 0308 3400D501 		.word	30736436
 2511 030c 0800D501 		.word	30736392
 2512 0310 2400E001 		.word	31457316
 2513              		.cfi_endproc
 2514              	.LFE4:
 2516              		.align	2
 2517              		.global	timer3_start_antirrebote
 2519              	timer3_start_antirrebote:
 2520              	.LFB5:
 113:../timer3.c   **** 
 114:../timer3.c   **** int timer3_start_antirrebote(uint8_t boton_id)
 115:../timer3.c   **** {
 2521              		.loc 1 115 0
 2522              		.cfi_startproc
 2523              		@ Function supports interworking.
 2524              		@ args = 0, pretend = 0, frame = 8
 2525              		@ frame_needed = 1, uses_anonymous_args = 0
 2526 0314 0DC0A0E1 		mov	ip, sp
 2527              	.LCFI10:
 2528              		.cfi_def_cfa_register 12
 2529 0318 00D82DE9 		stmfd	sp!, {fp, ip, lr, pc}
 2530 031c 04B04CE2 		sub	fp, ip, #4
 2531              		.cfi_offset 14, -8
 2532              		.cfi_offset 13, -12
 2533              		.cfi_offset 11, -16
 2534              	.LCFI11:
 2535              		.cfi_def_cfa 11, 4
 2536 0320 08D04DE2 		sub	sp, sp, #8
 2537 0324 0030A0E1 		mov	r3, r0
 2538 0328 0D304BE5 		strb	r3, [fp, #-13]
 116:../timer3.c   ****         if (estado_actual != ESPERANDO_PULSACION)
 2539              		.loc 1 116 0
 2540 032c C4309FE5 		ldr	r3, .L25
 2541 0330 0030D3E5 		ldrb	r3, [r3, #0]
 2542 0334 FF3003E2 		and	r3, r3, #255
 2543 0338 000053E3 		cmp	r3, #0
 2544 033c 0100000A 		beq	.L18
 117:../timer3.c   ****         {
 118:../timer3.c   ****                 return 0;
 2545              		.loc 1 118 0
 2546 0340 0030A0E3 		mov	r3, #0
 2547 0344 270000EA 		b	.L19
 2548              	.L18:
 119:../timer3.c   ****         }
 120:../timer3.c   **** 
 121:../timer3.c   ****         /* Seleccionar la máscara del puerto correspondiente */
 122:../timer3.c   ****         switch (boton_id)
 2549              		.loc 1 122 0
 2550 0348 0D305BE5 		ldrb	r3, [fp, #-13]	@ zero_extendqisi2
 2551 034c 040053E3 		cmp	r3, #4
 2552 0350 0200000A 		beq	.L21
 2553 0354 080053E3 		cmp	r3, #8
 2554 0358 0400000A 		beq	.L22
 2555 035c 070000EA 		b	.L24
 2556              	.L21:
 123:../timer3.c   ****         {
 124:../timer3.c   ****                 case EVENTO_BOTON_IZQUIERDO:
 125:../timer3.c   ****                         mascara_boton = BOTON_MASK_EINT6;
 2557              		.loc 1 125 0
 2558 0360 94309FE5 		ldr	r3, .L25+4
 2559 0364 4020A0E3 		mov	r2, #64
 2560 0368 002083E5 		str	r2, [r3, #0]
 126:../timer3.c   ****                         break;
 2561              		.loc 1 126 0
 2562 036c 050000EA 		b	.L23
 2563              	.L22:
 127:../timer3.c   ****                 case EVENTO_BOTON_DERECHO:
 128:../timer3.c   ****                         mascara_boton = BOTON_MASK_EINT7;
 2564              		.loc 1 128 0
 2565 0370 84309FE5 		ldr	r3, .L25+4
 2566 0374 8020A0E3 		mov	r2, #128
 2567 0378 002083E5 		str	r2, [r3, #0]
 129:../timer3.c   ****                         break;
 2568              		.loc 1 129 0
 2569 037c 010000EA 		b	.L23
 2570              	.L24:
 130:../timer3.c   ****                 default:
 131:../timer3.c   ****                         return 0;
 2571              		.loc 1 131 0
 2572 0380 0030A0E3 		mov	r3, #0
 2573 0384 170000EA 		b	.L19
 2574              	.L23:
 132:../timer3.c   ****         }
 133:../timer3.c   **** 
 134:../timer3.c   ****         boton_en_proceso = boton_id;
 2575              		.loc 1 134 0
 2576 0388 70309FE5 		ldr	r3, .L25+8
 2577 038c 0D205BE5 		ldrb	r2, [fp, #-13]
 2578 0390 0020C3E5 		strb	r2, [r3, #0]
 135:../timer3.c   ****         estado_actual = REBOTE_PRESION;
 2579              		.loc 1 135 0
 2580 0394 5C309FE5 		ldr	r3, .L25
 2581 0398 0120A0E3 		mov	r2, #1
 2582 039c 0020C3E5 		strb	r2, [r3, #0]
 136:../timer3.c   ****         contador_ms = TIMER3_TRP_MS;
 2583              		.loc 1 136 0
 2584 03a0 5C309FE5 		ldr	r3, .L25+12
 2585 03a4 1E20A0E3 		mov	r2, #30
 2586 03a8 002083E5 		str	r2, [r3, #0]
 137:../timer3.c   ****         monitor_ms = TIMER3_MONITOR_MS;
 2587              		.loc 1 137 0
 2588 03ac 54309FE5 		ldr	r3, .L25+16
 2589 03b0 6420A0E3 		mov	r2, #100
 2590 03b4 002083E5 		str	r2, [r3, #0]
 138:../timer3.c   **** 
 139:../timer3.c   ****         /* Deshabilitar las interrupciones de los botones */
 140:../timer3.c   ****         rINTMSK |= BIT_EINT4567;
 2591              		.loc 1 140 0
 2592 03b8 4C309FE5 		ldr	r3, .L25+20
 2593 03bc 48209FE5 		ldr	r2, .L25+20
 2594 03c0 002092E5 		ldr	r2, [r2, #0]
 2595 03c4 022682E3 		orr	r2, r2, #2097152
 2596 03c8 002083E5 		str	r2, [r3, #0]
 141:../timer3.c   **** 
 142:../timer3.c   ****         /* Preparar y arrancar el temporizador */
 143:../timer3.c   ****         timer3_preparar_tick();
 2597              		.loc 1 143 0
 2598 03cc 32FFFFEB 		bl	timer3_preparar_tick
 144:../timer3.c   **** 
 145:../timer3.c   ****         /* Habilitar la interrupción del timer3 */
 146:../timer3.c   ****         rINTMSK &= ~(BIT_TIMER3);
 2599              		.loc 1 146 0
 2600 03d0 34309FE5 		ldr	r3, .L25+20
 2601 03d4 30209FE5 		ldr	r2, .L25+20
 2602 03d8 002092E5 		ldr	r2, [r2, #0]
 2603 03dc 012BC2E3 		bic	r2, r2, #1024
 2604 03e0 002083E5 		str	r2, [r3, #0]
 147:../timer3.c   **** 
 148:../timer3.c   ****         return 1;
 2605              		.loc 1 148 0
 2606 03e4 0130A0E3 		mov	r3, #1
 2607              	.L19:
 149:../timer3.c   **** }
 2608              		.loc 1 149 0
 2609 03e8 0300A0E1 		mov	r0, r3
 2610 03ec 0CD04BE2 		sub	sp, fp, #12
 2611 03f0 00689DE8 		ldmfd	sp, {fp, sp, lr}
 2612 03f4 1EFF2FE1 		bx	lr
 2613              	.L26:
 2614              		.align	2
 2615              	.L25:
 2616 03f8 00000000 		.word	estado_actual
 2617 03fc 10000000 		.word	mascara_boton
 2618 0400 0C000000 		.word	boton_en_proceso
 2619 0404 04000000 		.word	contador_ms
 2620 0408 08000000 		.word	monitor_ms
 2621 040c 0C00E001 		.word	31457292
 2622              		.cfi_endproc
 2623              	.LFE5:
 2625              		.align	2
 2626              		.global	timer3_esta_ocupado
 2628              	timer3_esta_ocupado:
 2629              	.LFB6:
 150:../timer3.c   **** 
 151:../timer3.c   **** int timer3_esta_ocupado(void)
 152:../timer3.c   **** {
 2630              		.loc 1 152 0
 2631              		.cfi_startproc
 2632              		@ Function supports interworking.
 2633              		@ args = 0, pretend = 0, frame = 0
 2634              		@ frame_needed = 1, uses_anonymous_args = 0
 2635 0410 0DC0A0E1 		mov	ip, sp
 2636              	.LCFI12:
 2637              		.cfi_def_cfa_register 12
 2638 0414 00D82DE9 		stmfd	sp!, {fp, ip, lr, pc}
 2639 0418 04B04CE2 		sub	fp, ip, #4
 2640              		.cfi_offset 14, -8
 2641              		.cfi_offset 13, -12
 2642              		.cfi_offset 11, -16
 2643              	.LCFI13:
 2644              		.cfi_def_cfa 11, 4
 153:../timer3.c   ****         return (estado_actual != ESPERANDO_PULSACION);
 2645              		.loc 1 153 0
 2646 041c 20309FE5 		ldr	r3, .L28
 2647 0420 0030D3E5 		ldrb	r3, [r3, #0]
 2648 0424 FF3003E2 		and	r3, r3, #255
 2649 0428 000053E3 		cmp	r3, #0
 2650 042c 0030A003 		moveq	r3, #0
 2651 0430 0130A013 		movne	r3, #1
 154:../timer3.c   **** }
 2652              		.loc 1 154 0
 2653 0434 0300A0E1 		mov	r0, r3
 2654 0438 0CD04BE2 		sub	sp, fp, #12
 2655 043c 00689DE8 		ldmfd	sp, {fp, sp, lr}
 2656 0440 1EFF2FE1 		bx	lr
 2657              	.L29:
 2658              		.align	2
 2659              	.L28:
 2660 0444 00000000 		.word	estado_actual
 2661              		.cfi_endproc
 2662              	.LFE6:
 2664              		.align	2
 2665              		.global	timer3_ISR
 2667              	timer3_ISR:
 2668              	.LFB7:
 155:../timer3.c   **** 
 156:../timer3.c   **** /*--- Código de la ISR ---*/
 157:../timer3.c   **** void timer3_ISR(void)
 158:../timer3.c   **** {
 2669              		.loc 1 158 0
 2670              		.cfi_startproc
 2671              		@ Interrupt Service Routine.
 2672              		@ args = 0, pretend = 0, frame = 0
 2673              		@ frame_needed = 1, uses_anonymous_args = 0
 2674 0448 04C02DE5 		str	ip, [sp, #-4]!
 2675 044c 0DC0A0E1 		mov	ip, sp
 2676              	.LCFI14:
 2677              		.cfi_def_cfa_register 12
 2678 0450 0FD82DE9 		stmfd	sp!, {r0, r1, r2, r3, fp, ip, lr, pc}
 2679 0454 04B04CE2 		sub	fp, ip, #4
 2680              		.cfi_offset 14, -8
 2681              		.cfi_offset 13, -12
 2682              		.cfi_offset 11, -16
 2683              		.cfi_offset 3, -20
 2684              		.cfi_offset 2, -24
 2685              		.cfi_offset 1, -28
 2686              		.cfi_offset 0, -32
 2687              	.LCFI15:
 2688              		.cfi_def_cfa 11, 4
 159:../timer3.c   ****         switch (estado_actual)
 2689              		.loc 1 159 0
 2690 0458 58319FE5 		ldr	r3, .L47
 2691 045c 0030D3E5 		ldrb	r3, [r3, #0]
 2692 0460 FF3003E2 		and	r3, r3, #255
 2693 0464 020053E3 		cmp	r3, #2
 2694 0468 1700000A 		beq	.L33
 2695 046c 030053E3 		cmp	r3, #3
 2696 0470 3100000A 		beq	.L34
 2697 0474 010053E3 		cmp	r3, #1
 2698 0478 3E00001A 		bne	.L43
 2699              	.L32:
 160:../timer3.c   ****         {
 161:../timer3.c   ****                 case REBOTE_PRESION:
 162:../timer3.c   ****                         if (contador_ms > 0)
 2700              		.loc 1 162 0
 2701 047c 38319FE5 		ldr	r3, .L47+4
 2702 0480 003093E5 		ldr	r3, [r3, #0]
 2703 0484 000053E3 		cmp	r3, #0
 2704 0488 0400000A 		beq	.L35
 163:../timer3.c   ****                         {
 164:../timer3.c   ****                                 contador_ms -= TIMER3_TICK_MS;
 2705              		.loc 1 164 0
 2706 048c 28319FE5 		ldr	r3, .L47+4
 2707 0490 003093E5 		ldr	r3, [r3, #0]
 2708 0494 012043E2 		sub	r2, r3, #1
 2709 0498 1C319FE5 		ldr	r3, .L47+4
 2710 049c 002083E5 		str	r2, [r3, #0]
 2711              	.L35:
 165:../timer3.c   ****                         }
 166:../timer3.c   ****                         if (contador_ms == 0)
 2712              		.loc 1 166 0
 2713 04a0 14319FE5 		ldr	r3, .L47+4
 2714 04a4 003093E5 		ldr	r3, [r3, #0]
 2715 04a8 000053E3 		cmp	r3, #0
 2716 04ac 3300001A 		bne	.L44
 167:../timer3.c   ****                         {
 168:../timer3.c   ****                                 estado_actual = MONITORIZANDO;
 2717              		.loc 1 168 0
 2718 04b0 00319FE5 		ldr	r3, .L47
 2719 04b4 0220A0E3 		mov	r2, #2
 2720 04b8 0020C3E5 		strb	r2, [r3, #0]
 169:../timer3.c   ****                                 monitor_ms = TIMER3_MONITOR_MS;
 2721              		.loc 1 169 0
 2722 04bc FC309FE5 		ldr	r3, .L47+8
 2723 04c0 6420A0E3 		mov	r2, #100
 2724 04c4 002083E5 		str	r2, [r3, #0]
 170:../timer3.c   ****                         }
 171:../timer3.c   ****                         break;
 2725              		.loc 1 171 0
 2726 04c8 310000EA 		b	.L37
 2727              	.L33:
 172:../timer3.c   **** 
 173:../timer3.c   ****                 case MONITORIZANDO:
 174:../timer3.c   ****                         if (monitor_ms > 0)
 2728              		.loc 1 174 0
 2729 04cc EC309FE5 		ldr	r3, .L47+8
 2730 04d0 003093E5 		ldr	r3, [r3, #0]
 2731 04d4 000053E3 		cmp	r3, #0
 2732 04d8 0400000A 		beq	.L38
 175:../timer3.c   ****                         {
 176:../timer3.c   ****                                 monitor_ms -= TIMER3_TICK_MS;
 2733              		.loc 1 176 0
 2734 04dc DC309FE5 		ldr	r3, .L47+8
 2735 04e0 003093E5 		ldr	r3, [r3, #0]
 2736 04e4 012043E2 		sub	r2, r3, #1
 2737 04e8 D0309FE5 		ldr	r3, .L47+8
 2738 04ec 002083E5 		str	r2, [r3, #0]
 2739              	.L38:
 177:../timer3.c   ****                         }
 178:../timer3.c   ****                         if (monitor_ms == 0)
 2740              		.loc 1 178 0
 2741 04f0 C8309FE5 		ldr	r3, .L47+8
 2742 04f4 003093E5 		ldr	r3, [r3, #0]
 2743 04f8 000053E3 		cmp	r3, #0
 2744 04fc 2100001A 		bne	.L45
 179:../timer3.c   ****                         {
 180:../timer3.c   ****                                 if (boton_sigue_pulsado())
 2745              		.loc 1 180 0
 2746 0500 BEFEFFEB 		bl	boton_sigue_pulsado
 2747 0504 0030A0E1 		mov	r3, r0
 2748 0508 000053E3 		cmp	r3, #0
 2749 050c 0300000A 		beq	.L40
 181:../timer3.c   ****                                 {
 182:../timer3.c   ****                                         monitor_ms = TIMER3_MONITOR_MS;
 2750              		.loc 1 182 0
 2751 0510 A8309FE5 		ldr	r3, .L47+8
 2752 0514 6420A0E3 		mov	r2, #100
 2753 0518 002083E5 		str	r2, [r3, #0]
 183:../timer3.c   ****                                 }
 184:../timer3.c   ****                                 else
 185:../timer3.c   ****                                 {
 186:../timer3.c   ****                                         estado_actual = REBOTE_DEPRESION;
 187:../timer3.c   ****                                         contador_ms = TIMER3_TRD_MS;
 188:../timer3.c   ****                                 }
 189:../timer3.c   ****                         }
 190:../timer3.c   ****                         break;
 2754              		.loc 1 190 0
 2755 051c 1C0000EA 		b	.L37
 2756              	.L40:
 186:../timer3.c   ****                                         estado_actual = REBOTE_DEPRESION;
 2757              		.loc 1 186 0
 2758 0520 90309FE5 		ldr	r3, .L47
 2759 0524 0320A0E3 		mov	r2, #3
 2760 0528 0020C3E5 		strb	r2, [r3, #0]
 187:../timer3.c   ****                                         contador_ms = TIMER3_TRD_MS;
 2761              		.loc 1 187 0
 2762 052c 88309FE5 		ldr	r3, .L47+4
 2763 0530 1E20A0E3 		mov	r2, #30
 2764 0534 002083E5 		str	r2, [r3, #0]
 2765              		.loc 1 190 0
 2766 0538 150000EA 		b	.L37
 2767              	.L34:
 191:../timer3.c   **** 
 192:../timer3.c   ****                 case REBOTE_DEPRESION:
 193:../timer3.c   ****                         if (contador_ms > 0)
 2768              		.loc 1 193 0
 2769 053c 78309FE5 		ldr	r3, .L47+4
 2770 0540 003093E5 		ldr	r3, [r3, #0]
 2771 0544 000053E3 		cmp	r3, #0
 2772 0548 0400000A 		beq	.L41
 194:../timer3.c   ****                         {
 195:../timer3.c   ****                                 contador_ms -= TIMER3_TICK_MS;
 2773              		.loc 1 195 0
 2774 054c 68309FE5 		ldr	r3, .L47+4
 2775 0550 003093E5 		ldr	r3, [r3, #0]
 2776 0554 012043E2 		sub	r2, r3, #1
 2777 0558 5C309FE5 		ldr	r3, .L47+4
 2778 055c 002083E5 		str	r2, [r3, #0]
 2779              	.L41:
 196:../timer3.c   ****                         }
 197:../timer3.c   ****                         if (contador_ms == 0)
 2780              		.loc 1 197 0
 2781 0560 54309FE5 		ldr	r3, .L47+4
 2782 0564 003093E5 		ldr	r3, [r3, #0]
 2783 0568 000053E3 		cmp	r3, #0
 2784 056c 0700001A 		bne	.L46
 198:../timer3.c   ****                         {
 199:../timer3.c   ****                                 finalizar_antirrebote();
 2785              		.loc 1 199 0
 2786 0570 E4FEFFEB 		bl	finalizar_antirrebote
 200:../timer3.c   ****                         }
 201:../timer3.c   ****                         break;
 2787              		.loc 1 201 0
 2788 0574 060000EA 		b	.L37
 2789              	.L43:
 202:../timer3.c   **** 
 203:../timer3.c   ****                 default:
 204:../timer3.c   ****                         break;
 2790              		.loc 1 204 0
 2791 0578 0000A0E1 		mov	r0, r0	@ nop
 2792 057c 040000EA 		b	.L37
 2793              	.L44:
 171:../timer3.c   ****                         break;
 2794              		.loc 1 171 0
 2795 0580 0000A0E1 		mov	r0, r0	@ nop
 2796 0584 020000EA 		b	.L37
 2797              	.L45:
 190:../timer3.c   ****                         break;
 2798              		.loc 1 190 0
 2799 0588 0000A0E1 		mov	r0, r0	@ nop
 2800 058c 000000EA 		b	.L37
 2801              	.L46:
 201:../timer3.c   ****                         break;
 2802              		.loc 1 201 0
 2803 0590 0000A0E1 		mov	r0, r0	@ nop
 2804              	.L37:
 205:../timer3.c   ****         }
 206:../timer3.c   **** 
 207:../timer3.c   ****         /* Limpiar la petición de interrupción */
 208:../timer3.c   ****         rI_ISPC |= BIT_TIMER3;
 2805              		.loc 1 208 0
 2806 0594 28309FE5 		ldr	r3, .L47+12
 2807 0598 24209FE5 		ldr	r2, .L47+12
 2808 059c 002092E5 		ldr	r2, [r2, #0]
 2809 05a0 012B82E3 		orr	r2, r2, #1024
 2810 05a4 002083E5 		str	r2, [r3, #0]
 209:../timer3.c   **** }
 2811              		.loc 1 209 0
 2812 05a8 1CD04BE2 		sub	sp, fp, #28
 2813 05ac 0F689DE8 		ldmfd	sp, {r0, r1, r2, r3, fp, sp, lr}
 2814 05b0 04C09DE4 		ldmfd	sp!, {ip}
 2815 05b4 04F05EE2 		subs	pc, lr, #4
 2816              	.L48:
 2817              		.align	2
 2818              	.L47:
 2819 05b8 00000000 		.word	estado_actual
 2820 05bc 04000000 		.word	contador_ms
 2821 05c0 08000000 		.word	monitor_ms
 2822 05c4 2400E001 		.word	31457316
 2823              		.cfi_endproc
 2824              	.LFE7:
 2826              	.Letext0: